target datalayout = "e-m:e-p270:32:32-p271:32:32-p272:64:64-i64:64-i128:128-f80:128-n8:16:32:64-S128"
target triple = "x86_64-pc-linux-gnu"

%"class.gmx::NoseHooverChainsData" = type <{ %"class.gmx::ICheckpointHelperClient", %"class.std::__cxx11::basic_string", %"class.std::vector.20", i32, [4 x i8] }>
%"class.gmx::ICheckpointHelperClient" = type { ptr }
%"class.std::__cxx11::basic_string" = type { %"struct.std::__cxx11::basic_string<char>::_Alloc_hider", i64, %union.anon }
%"struct.std::__cxx11::basic_string<char>::_Alloc_hider" = type { ptr }
%union.anon = type { i64, [8 x i8] }
%"class.std::vector.20" = type { %"struct.std::_Vector_base.21" }
%"struct.std::_Vector_base.21" = type { %"struct.std::_Vector_base<gmx::NoseHooverGroup, std::allocator<gmx::NoseHooverGroup>>::_Vector_impl" }
%"struct.std::_Vector_base<gmx::NoseHooverGroup, std::allocator<gmx::NoseHooverGroup>>::_Vector_impl" = type { %"struct.std::_Vector_base<gmx::NoseHooverGroup, std::allocator<gmx::NoseHooverGroup>>::_Vector_impl_data" }
%"struct.std::_Vector_base<gmx::NoseHooverGroup, std::allocator<gmx::NoseHooverGroup>>::_Vector_impl_data" = type { ptr, ptr, ptr }
%"class.gmx::NoseHooverGroup" = type { float, float, float, i32, float, %"class.std::vector", %"class.std::vector", double, %"class.std::vector", float, float }
%"class.std::vector" = type { %"struct.std::_Vector_base" }
%"struct.std::_Vector_base" = type { %"struct.std::_Vector_base<float, std::allocator<float>>::_Vector_impl" }
%"struct.std::_Vector_base<float, std::allocator<float>>::_Vector_impl" = type { %"struct.std::_Vector_base<float, std::allocator<float>>::_Vector_impl_data" }
%"struct.std::_Vector_base<float, std::allocator<float>>::_Vector_impl_data" = type { ptr, ptr, ptr }
%"class.__gnu_cxx::__normal_iterator.25" = type { ptr }
%class.anon.315 = type { ptr }

; Function Attrs: inlinehint mustprogress nounwind uwtable
define linkonce_odr noundef double @_ZNK3gmx15NoseHooverGroup8integralEv(ptr noundef nonnull align 8 dereferenceable(112) %0) #2 comdat align 2 {
  %2 = alloca ptr, align 8
  store ptr %0, ptr %2, align 8, !tbaa !34
  %3 = load ptr, ptr %2, align 8
  %4 = getelementptr inbounds nuw %"class.gmx::NoseHooverGroup", ptr %3, i32 0, i32 7
  %5 = load double, ptr %4, align 8, !tbaa !78
  ret double %5
}

; Function Attrs: mustprogress nounwind uwtable
define linkonce_odr noundef nonnull align 8 dereferenceable(8) ptr @_ZNK9__gnu_cxx17__normal_iteratorIPKN3gmx15NoseHooverGroupESt6vectorIS2_SaIS2_EEE4baseEv(ptr noundef nonnull align 8 dereferenceable(8) %0) #0 comdat align 2 {
  %2 = alloca ptr, align 8
  store ptr %0, ptr %2, align 8, !tbaa !176
  %3 = load ptr, ptr %2, align 8
  %4 = getelementptr inbounds nuw %"class.__gnu_cxx::__normal_iterator.25", ptr %3, i32 0, i32 0
  ret ptr %4
}

; Function Attrs: mustprogress nounwind uwtable
define linkonce_odr noundef nonnull align 8 dereferenceable(8) ptr @_ZN9__gnu_cxx17__normal_iteratorIPKN3gmx15NoseHooverGroupESt6vectorIS2_SaIS2_EEEppEv(ptr noundef nonnull align 8 dereferenceable(8) %0) #0 comdat align 2 {
  %2 = alloca ptr, align 8
  store ptr %0, ptr %2, align 8, !tbaa !176
  %3 = load ptr, ptr %2, align 8
  %4 = getelementptr inbounds nuw %"class.__gnu_cxx::__normal_iterator.25", ptr %3, i32 0, i32 0
  %5 = load ptr, ptr %4, align 8, !tbaa !178
  %6 = getelementptr inbounds nuw %"class.gmx::NoseHooverGroup", ptr %5, i32 1
  store ptr %6, ptr %4, align 8, !tbaa !178
  ret ptr %3
}

; Function Attrs: inlinehint mustprogress uwtable
define internal void @"_ZZNK3gmx20NoseHooverChainsData27temperatureCouplingIntegralEdENK3$_0clINS_15NoseHooverGroupEEEDaRKT_"(ptr noundef nonnull align 8 dereferenceable(8) %0, ptr noundef nonnull align 8 dereferenceable(112) %1) #8 align 2 {
  %3 = alloca ptr, align 8
  %4 = alloca ptr, align 8
  store ptr %0, ptr %3, align 8, !tbaa !101
  store ptr %1, ptr %4, align 8, !tbaa !34
  %5 = load ptr, ptr %3, align 8
  %6 = load ptr, ptr %4, align 8, !tbaa !34
  %7 = call noundef double @_ZNK3gmx15NoseHooverGroup8integralEv(ptr noundef nonnull align 8 dereferenceable(112) %6)
  %8 = getelementptr inbounds nuw %class.anon.315, ptr %5, i32 0, i32 0
  %9 = load ptr, ptr %8, align 8, !tbaa !683
  %10 = load double, ptr %9, align 8, !tbaa !41
  %11 = fadd double %10, %7
  store double %11, ptr %9, align 8, !tbaa !41
  ret void
}

; Function Attrs: mustprogress nounwind uwtable
define linkonce_odr noundef nonnull align 8 dereferenceable(112) ptr @_ZNK9__gnu_cxx17__normal_iteratorIPKN3gmx15NoseHooverGroupESt6vectorIS2_SaIS2_EEEdeEv(ptr noundef nonnull align 8 dereferenceable(8) %0) #0 comdat align 2 {
  %2 = alloca ptr, align 8
  store ptr %0, ptr %2, align 8, !tbaa !176
  %3 = load ptr, ptr %2, align 8
  %4 = getelementptr inbounds nuw %"class.__gnu_cxx::__normal_iterator.25", ptr %3, i32 0, i32 0
  %5 = load ptr, ptr %4, align 8, !tbaa !178
  ret ptr %5
}

; Function Attrs: inlinehint mustprogress nounwind uwtable
define linkonce_odr noundef zeroext i1 @_ZN9__gnu_cxxneIPKN3gmx15NoseHooverGroupESt6vectorIS2_SaIS2_EEEEbRKNS_17__normal_iteratorIT_T0_EESD_(ptr noundef nonnull align 8 dereferenceable(8) %0, ptr noundef nonnull align 8 dereferenceable(8) %1) #2 comdat {
  %3 = alloca ptr, align 8
  %4 = alloca ptr, align 8
  store ptr %0, ptr %3, align 8, !tbaa !176
  store ptr %1, ptr %4, align 8, !tbaa !176
  %5 = load ptr, ptr %3, align 8, !tbaa !176
  %6 = call noundef nonnull align 8 dereferenceable(8) ptr @_ZNK9__gnu_cxx17__normal_iteratorIPKN3gmx15NoseHooverGroupESt6vectorIS2_SaIS2_EEE4baseEv(ptr noundef nonnull align 8 dereferenceable(8) %5) #21
  %7 = load ptr, ptr %6, align 8, !tbaa !34
  %8 = load ptr, ptr %4, align 8, !tbaa !176
  %9 = call noundef nonnull align 8 dereferenceable(8) ptr @_ZNK9__gnu_cxx17__normal_iteratorIPKN3gmx15NoseHooverGroupESt6vectorIS2_SaIS2_EEE4baseEv(ptr noundef nonnull align 8 dereferenceable(8) %8) #21
  %10 = load ptr, ptr %9, align 8, !tbaa !34
  %11 = icmp ne ptr %7, %10
  ret i1 %11
}

; Function Attrs: mustprogress nounwind uwtable
define linkonce_odr void @_ZN9__gnu_cxx17__normal_iteratorIPKN3gmx15NoseHooverGroupESt6vectorIS2_SaIS2_EEEC2ERKS4_(ptr noundef nonnull align 8 dereferenceable(8) %0, ptr noundef nonnull align 8 dereferenceable(8) %1) unnamed_addr #0 comdat align 2 {
  %3 = alloca ptr, align 8
  %4 = alloca ptr, align 8
  store ptr %0, ptr %3, align 8, !tbaa !176
  store ptr %1, ptr %4, align 8, !tbaa !146
  %5 = load ptr, ptr %3, align 8
  %6 = getelementptr inbounds nuw %"class.__gnu_cxx::__normal_iterator.25", ptr %5, i32 0, i32 0
  %7 = load ptr, ptr %4, align 8, !tbaa !146
  %8 = load ptr, ptr %7, align 8, !tbaa !34
  store ptr %8, ptr %6, align 8, !tbaa !178
  ret void
}

; Function Attrs: mustprogress uwtable
define internal ptr @"_ZSt8for_eachIN9__gnu_cxx17__normal_iteratorIPKN3gmx15NoseHooverGroupESt6vectorIS3_SaIS3_EEEEZNKS2_20NoseHooverChainsData27temperatureCouplingIntegralEdE3$_0ET0_T_SD_SC_"(ptr %0, ptr %1, ptr %2) #1 {
  %4 = alloca %class.anon.315, align 8
  %5 = alloca %"class.__gnu_cxx::__normal_iterator.25", align 8
  %6 = alloca %"class.__gnu_cxx::__normal_iterator.25", align 8
  %7 = alloca %class.anon.315, align 8
  %8 = getelementptr inbounds nuw %"class.__gnu_cxx::__normal_iterator.25", ptr %5, i32 0, i32 0
  store ptr %0, ptr %8, align 8
  %9 = getelementptr inbounds nuw %"class.__gnu_cxx::__normal_iterator.25", ptr %6, i32 0, i32 0
  store ptr %1, ptr %9, align 8
  %10 = getelementptr inbounds nuw %class.anon.315, ptr %7, i32 0, i32 0
  store ptr %2, ptr %10, align 8
  br label %11

11:                                               ; preds = %15, %3
  %12 = call noundef zeroext i1 @_ZN9__gnu_cxxneIPKN3gmx15NoseHooverGroupESt6vectorIS2_SaIS2_EEEEbRKNS_17__normal_iteratorIT_T0_EESD_(ptr noundef nonnull align 8 dereferenceable(8) %5, ptr noundef nonnull align 8 dereferenceable(8) %6) #21
  br i1 %12, label %13, label %17

13:                                               ; preds = %11
  %14 = call noundef nonnull align 8 dereferenceable(112) ptr @_ZNK9__gnu_cxx17__normal_iteratorIPKN3gmx15NoseHooverGroupESt6vectorIS2_SaIS2_EEEdeEv(ptr noundef nonnull align 8 dereferenceable(8) %5) #21
  call void @"_ZZNK3gmx20NoseHooverChainsData27temperatureCouplingIntegralEdENK3$_0clINS_15NoseHooverGroupEEEDaRKT_"(ptr noundef nonnull align 8 dereferenceable(8) %7, ptr noundef nonnull align 8 dereferenceable(112) %14)
  br label %15

15:                                               ; preds = %13
  %16 = call noundef nonnull align 8 dereferenceable(8) ptr @_ZN9__gnu_cxx17__normal_iteratorIPKN3gmx15NoseHooverGroupESt6vectorIS2_SaIS2_EEEppEv(ptr noundef nonnull align 8 dereferenceable(8) %5) #21
  br label %11, !llvm.loop !681

17:                                               ; preds = %11
  call void @llvm.memcpy.p0.p0.i64(ptr align 8 %4, ptr align 8 %7, i64 8, i1 false), !tbaa.struct !682
  %18 = getelementptr inbounds nuw %class.anon.315, ptr %4, i32 0, i32 0
  %19 = load ptr, ptr %18, align 8
  ret ptr %19
}

; Function Attrs: mustprogress nounwind uwtable
define linkonce_odr ptr @_ZNKSt6vectorIN3gmx15NoseHooverGroupESaIS1_EE3endEv(ptr noundef nonnull align 8 dereferenceable(24) %0) #0 comdat align 2 {
  %2 = alloca %"class.__gnu_cxx::__normal_iterator.25", align 8
  %3 = alloca ptr, align 8
  store ptr %0, ptr %3, align 8, !tbaa !32
  %4 = load ptr, ptr %3, align 8
  %5 = getelementptr inbounds nuw %"struct.std::_Vector_base.21", ptr %4, i32 0, i32 0
  %6 = getelementptr inbounds nuw %"struct.std::_Vector_base<gmx::NoseHooverGroup, std::allocator<gmx::NoseHooverGroup>>::_Vector_impl_data", ptr %5, i32 0, i32 1
  call void @_ZN9__gnu_cxx17__normal_iteratorIPKN3gmx15NoseHooverGroupESt6vectorIS2_SaIS2_EEEC2ERKS4_(ptr noundef nonnull align 8 dereferenceable(8) %2, ptr noundef nonnull align 8 dereferenceable(8) %6) #21
  %7 = getelementptr inbounds nuw %"class.__gnu_cxx::__normal_iterator.25", ptr %2, i32 0, i32 0
  %8 = load ptr, ptr %7, align 8
  ret ptr %8
}

; Function Attrs: mustprogress nounwind uwtable
define linkonce_odr ptr @_ZNKSt6vectorIN3gmx15NoseHooverGroupESaIS1_EE5beginEv(ptr noundef nonnull align 8 dereferenceable(24) %0) #0 comdat align 2 {
  %2 = alloca %"class.__gnu_cxx::__normal_iterator.25", align 8
  %3 = alloca ptr, align 8
  store ptr %0, ptr %3, align 8, !tbaa !32
  %4 = load ptr, ptr %3, align 8
  %5 = getelementptr inbounds nuw %"struct.std::_Vector_base.21", ptr %4, i32 0, i32 0
  %6 = getelementptr inbounds nuw %"struct.std::_Vector_base<gmx::NoseHooverGroup, std::allocator<gmx::NoseHooverGroup>>::_Vector_impl_data", ptr %5, i32 0, i32 0
  call void @_ZN9__gnu_cxx17__normal_iteratorIPKN3gmx15NoseHooverGroupESt6vectorIS2_SaIS2_EEEC2ERKS4_(ptr noundef nonnull align 8 dereferenceable(8) %2, ptr noundef nonnull align 8 dereferenceable(8) %6) #21
  %7 = getelementptr inbounds nuw %"class.__gnu_cxx::__normal_iterator.25", ptr %2, i32 0, i32 0
  %8 = load ptr, ptr %7, align 8
  ret ptr %8
}

; Function Attrs: mustprogress uwtable
define noundef double @_ZNK3gmx20NoseHooverChainsData27temperatureCouplingIntegralEd(ptr noundef nonnull align 8 dereferenceable(72) %0, double noundef %1) #1 align 2 {
  %3 = alloca ptr, align 8
  %4 = alloca double, align 8
  %5 = alloca double, align 8
  %6 = alloca %"class.__gnu_cxx::__normal_iterator.25", align 8
  %7 = alloca %"class.__gnu_cxx::__normal_iterator.25", align 8
  %8 = alloca %class.anon.315, align 8
  %9 = alloca %class.anon.315, align 8
  store ptr %0, ptr %3, align 8, !tbaa !4
  store double %1, ptr %4, align 8, !tbaa !41
  %10 = load ptr, ptr %3, align 8
  call void @llvm.lifetime.start.p0(i64 8, ptr %5) #21
  store double 0.000000e+00, ptr %5, align 8, !tbaa !41
  %11 = getelementptr inbounds nuw %"class.gmx::NoseHooverChainsData", ptr %10, i32 0, i32 2
  %12 = call ptr @_ZNKSt6vectorIN3gmx15NoseHooverGroupESaIS1_EE5beginEv(ptr noundef nonnull align 8 dereferenceable(24) %11) #21
  %13 = getelementptr inbounds nuw %"class.__gnu_cxx::__normal_iterator.25", ptr %6, i32 0, i32 0
  store ptr %12, ptr %13, align 8
  %14 = getelementptr inbounds nuw %"class.gmx::NoseHooverChainsData", ptr %10, i32 0, i32 2
  %15 = call ptr @_ZNKSt6vectorIN3gmx15NoseHooverGroupESaIS1_EE3endEv(ptr noundef nonnull align 8 dereferenceable(24) %14) #21
  %16 = getelementptr inbounds nuw %"class.__gnu_cxx::__normal_iterator.25", ptr %7, i32 0, i32 0
  store ptr %15, ptr %16, align 8
  %17 = getelementptr inbounds nuw %class.anon.315, ptr %8, i32 0, i32 0
  store ptr %5, ptr %17, align 8, !tbaa !678
  %18 = getelementptr inbounds nuw %"class.__gnu_cxx::__normal_iterator.25", ptr %6, i32 0, i32 0
  %19 = load ptr, ptr %18, align 8
  %20 = getelementptr inbounds nuw %"class.__gnu_cxx::__normal_iterator.25", ptr %7, i32 0, i32 0
  %21 = load ptr, ptr %20, align 8
  %22 = getelementptr inbounds nuw %class.anon.315, ptr %8, i32 0, i32 0
  %23 = load ptr, ptr %22, align 8
  %24 = call ptr @"_ZSt8for_eachIN9__gnu_cxx17__normal_iteratorIPKN3gmx15NoseHooverGroupESt6vectorIS3_SaIS3_EEEEZNKS2_20NoseHooverChainsData27temperatureCouplingIntegralEdE3$_0ET0_T_SD_SC_"(ptr %19, ptr %21, ptr %23)
  %25 = getelementptr inbounds nuw %class.anon.315, ptr %9, i32 0, i32 0
  store ptr %24, ptr %25, align 8
  %26 = load double, ptr %5, align 8, !tbaa !41
  call void @llvm.lifetime.end.p0(i64 8, ptr %5) #21
  ret double %26
}