; Function Attrs: mustprogress nofree norecurse nosync nounwind willreturn memory(read, inaccessiblemem: none) uwtable
define noundef double @_ZNK3gmx20NoseHooverChainsData27temperatureCouplingIntegralEd(ptr noundef nonnull readonly align 8 captures(none) dereferenceable(72) %0, double noundef %1) local_unnamed_addr #21 align 2 {
  %3 = getelementptr inbounds nuw i8, ptr %0, i64 40
  %4 = load ptr, ptr %3, align 8, !tbaa !32
  %5 = getelementptr inbounds nuw i8, ptr %0, i64 48
  %6 = load ptr, ptr %5, align 8, !tbaa !32
  %.not6.i = icmp eq ptr %4, %6
  br i1 %.not6.i, label %"_ZSt8for_eachIN9__gnu_cxx17__normal_iteratorIPKN3gmx15NoseHooverGroupESt6vectorIS3_SaIS3_EEEEZNKS2_20NoseHooverChainsData27temperatureCouplingIntegralEdE3$_0ET0_T_SD_SC_.exit", label %.lr.ph.i

.lr.ph.i:                                         ; preds = %2, %.lr.ph.i
  %7 = phi double [ %9, %.lr.ph.i ], [ 0.000000e+00, %2 ]
  %.sroa.03.07.i = phi ptr [ %10, %.lr.ph.i ], [ %4, %2 ]
  %8 = getelementptr i8, ptr %.sroa.03.07.i, i64 72
  %.val1.i = load double, ptr %8, align 8, !tbaa !35
  %9 = fadd double %7, %.val1.i
  %10 = getelementptr inbounds nuw i8, ptr %.sroa.03.07.i, i64 112
  %.not.i = icmp eq ptr %10, %6
  br i1 %.not.i, label %"_ZSt8for_eachIN9__gnu_cxx17__normal_iteratorIPKN3gmx15NoseHooverGroupESt6vectorIS3_SaIS3_EEEEZNKS2_20NoseHooverChainsData27temperatureCouplingIntegralEdE3$_0ET0_T_SD_SC_.exit", label %.lr.ph.i, !llvm.loop !336

"_ZSt8for_eachIN9__gnu_cxx17__normal_iteratorIPKN3gmx15NoseHooverGroupESt6vectorIS3_SaIS3_EEEEZNKS2_20NoseHooverChainsData27temperatureCouplingIntegralEdE3$_0ET0_T_SD_SC_.exit": ; preds = %.lr.ph.i, %2
  %.0 = phi double [ 0.000000e+00, %2 ], [ %9, %.lr.ph.i ]
  ret double %.0
}